; Function Attrs: nounwind uwtable
define internal i32 @epm_dissect_ept_lookup_resp(ptr noundef %0, i32 noundef %1, ptr noundef %2, ptr noundef %3, ptr noundef %4, ptr noundef %5) #0 {
  %7 = load i32, ptr @hf_epm_hnd, align 4
  %8 = tail call i32 @dissect_ndr_ctx_hnd(ptr noundef %0, i32 noundef %1, ptr noundef %2, ptr noundef %3, ptr noundef %4, ptr noundef %5, i32 noundef %7, ptr noundef null) #5
  %9 = load i32, ptr @hf_epm_num_ents, align 4
  %10 = tail call i32 @dissect_ndr_uint32(ptr noundef %0, i32 noundef %8, ptr noundef %2, ptr noundef %3, ptr noundef %4, ptr noundef %5, i32 noundef %9, ptr noundef null) #5
  %11 = tail call i32 @dissect_ndr_pointer(ptr noundef %0, i32 noundef %10, ptr noundef %2, ptr noundef %3, ptr noundef %4, ptr noundef %5, ptr noundef nonnull @epm_dissect_ept_entry_t_array, i32 noundef 1, ptr noundef nonnull @.str.121, i32 noundef -1) #5
  %12 = load i32, ptr @hf_epm_rc, align 4
  %13 = tail call i32 @dissect_ndr_uint32(ptr noundef %0, i32 noundef %11, ptr noundef %2, ptr noundef %3, ptr noundef %4, ptr noundef %5, i32 noundef %12, ptr noundef null) #5
  ret i32 %13
}